; Function Attrs: nounwind uwtable
define internal ptr @builtin_globals(ptr readnone captures(none) %0, ptr readnone captures(none) %1) #0 {
  %3 = tail call ptr @PyEval_GetGlobals() #9
  %.not.i.i.i = icmp eq ptr %3, null
  br i1 %.not.i.i.i, label %builtin_globals_impl.exit, label %4

4:                                                ; preds = %2
  %5 = load i32, ptr %3, align 8, !tbaa !33
  %6 = icmp slt i32 %5, 0
  br i1 %6, label %builtin_globals_impl.exit, label %7

7:                                                ; preds = %4
  %8 = add nuw i32 %5, 1
  store i32 %8, ptr %3, align 8, !tbaa !33
  br label %builtin_globals_impl.exit

builtin_globals_impl.exit:                        ; preds = %2, %4, %7
  ret ptr %3
}